target datalayout = "e-m:e-p270:32:32-p271:32:32-p272:64:64-i64:64-i128:128-f80:128-n8:16:32:64-S128"
target triple = "x86_64-pc-linux-gnu"

%class.cmListFileBacktrace = type { %class.cmConstStack }
%class.cmConstStack = type { %"class.std::shared_ptr" }
%"class.std::shared_ptr" = type { %"class.std::__shared_ptr" }
%"class.std::__shared_ptr" = type { ptr, %"class.std::__shared_count" }
%"class.std::__shared_count" = type { ptr }
%"class.std::unique_ptr.418" = type { %"struct.std::__uniq_ptr_data.419" }
%"struct.std::__uniq_ptr_data.419" = type { %"class.std::__uniq_ptr_impl.420" }
%"class.std::__uniq_ptr_impl.420" = type { %"class.std::tuple.421" }
%"class.std::tuple.421" = type { %"struct.std::_Tuple_impl.422" }
%"struct.std::_Tuple_impl.422" = type { %"struct.std::_Head_base.425" }
%"struct.std::_Head_base.425" = type { ptr }

; Function Attrs: mustprogress uwtable
define internal void @_ZN12_GLOBAL__N_127CreateInstallFilesGeneratorEP10cmMakefileRKSt6vectorINSt7__cxx1112basic_stringIcSt11char_traitsIcESaIcEEESaIS8_EERK25cmInstallCommandArgumentsbRKS8_(ptr dead_on_unwind noalias writable sret(%"class.std::unique_ptr.418") align 8 %0, ptr noundef %1, ptr noundef nonnull align 8 dereferenceable(24) %2, ptr noundef nonnull align 8 dereferenceable(440) %3, i1 noundef zeroext %4, ptr noundef nonnull align 8 dereferenceable(32) %5) #6 personality ptr @__gxx_personality_v0 {
  %7 = alloca ptr, align 8
  %8 = alloca ptr, align 8
  %9 = alloca ptr, align 8
  %10 = alloca ptr, align 8
  %11 = alloca i8, align 1
  %12 = alloca ptr, align 8
  %13 = alloca i32, align 4
  %14 = alloca i8, align 1
  %15 = alloca i8, align 1
  %16 = alloca %class.cmListFileBacktrace, align 8
  %17 = alloca ptr, align 8
  %18 = alloca i32, align 4
  store ptr %0, ptr %7, align 8
  store ptr %1, ptr %8, align 8
  store ptr %2, ptr %9, align 8
  store ptr %3, ptr %10, align 8
  %19 = zext i1 %4 to i8
  store i8 %19, ptr %11, align 1
  store ptr %5, ptr %12, align 8
  %20 = load ptr, ptr %8, align 8
  %21 = call noundef i32 @_ZN18cmInstallGenerator18SelectMessageLevelEP10cmMakefileb(ptr noundef %20, i1 noundef zeroext false)
  store i32 %21, ptr %13, align 4
  %22 = load ptr, ptr %9, align 8
  %23 = load ptr, ptr %12, align 8
  %24 = load ptr, ptr %10, align 8
  %25 = call noundef nonnull align 8 dereferenceable(32) ptr @_ZNK25cmInstallCommandArguments14GetPermissionsB5cxx11Ev(ptr noundef nonnull align 8 dereferenceable(440) %24)
  %26 = load ptr, ptr %10, align 8
  %27 = call noundef nonnull align 8 dereferenceable(24) ptr @_ZNK25cmInstallCommandArguments17GetConfigurationsB5cxx11Ev(ptr noundef nonnull align 8 dereferenceable(440) %26)
  %28 = load ptr, ptr %10, align 8
  %29 = call noundef nonnull align 8 dereferenceable(32) ptr @_ZNK25cmInstallCommandArguments12GetComponentB5cxx11Ev(ptr noundef nonnull align 8 dereferenceable(440) %28)
  %30 = load ptr, ptr %10, align 8
  %31 = call noundef zeroext i1 @_ZNK25cmInstallCommandArguments17GetExcludeFromAllEv(ptr noundef nonnull align 8 dereferenceable(440) %30)
  %32 = zext i1 %31 to i8
  store i8 %32, ptr %14, align 1
  %33 = load ptr, ptr %10, align 8
  %34 = call noundef nonnull align 8 dereferenceable(32) ptr @_ZNK25cmInstallCommandArguments9GetRenameB5cxx11Ev(ptr noundef nonnull align 8 dereferenceable(440) %33)
  %35 = load ptr, ptr %10, align 8
  %36 = call noundef zeroext i1 @_ZNK25cmInstallCommandArguments11GetOptionalEv(ptr noundef nonnull align 8 dereferenceable(440) %35)
  %37 = zext i1 %36 to i8
  store i8 %37, ptr %15, align 1
  %38 = load ptr, ptr %8, align 8
  call void @_ZNK10cmMakefile12GetBacktraceEv(ptr dead_on_unwind writable sret(%class.cmListFileBacktrace) align 8 %16, ptr noundef nonnull align 8 dereferenceable(3520) %38)
  invoke void @_ZSt11make_uniqueI23cmInstallFilesGeneratorJRKSt6vectorINSt7__cxx1112basic_stringIcSt11char_traitsIcESaIcEEESaIS7_EERKS7_RbSD_SB_SD_RN18cmInstallGenerator12MessageLevelEbSD_b19cmListFileBacktraceEENSt8__detail9_MakeUniqIT_E15__single_objectEDpOT0_(ptr dead_on_unwind writable sret(%"class.std::unique_ptr.418") align 8 %0, ptr noundef nonnull align 8 dereferenceable(24) %22, ptr noundef nonnull align 8 dereferenceable(32) %23, ptr noundef nonnull align 1 dereferenceable(1) %11, ptr noundef nonnull align 8 dereferenceable(32) %25, ptr noundef nonnull align 8 dereferenceable(24) %27, ptr noundef nonnull align 8 dereferenceable(32) %29, ptr noundef nonnull align 4 dereferenceable(4) %13, ptr noundef nonnull align 1 dereferenceable(1) %14, ptr noundef nonnull align 8 dereferenceable(32) %34, ptr noundef nonnull align 1 dereferenceable(1) %15, ptr noundef nonnull align 8 dereferenceable(16) %16)
          to label %39 unwind label %40

39:                                               ; preds = %6
  call void @_ZN19cmListFileBacktraceD2Ev(ptr noundef nonnull align 8 dereferenceable(16) %16) #3
  ret void

40:                                               ; preds = %6
  %41 = landingpad { ptr, i32 }
          cleanup
  %42 = extractvalue { ptr, i32 } %41, 0
  store ptr %42, ptr %17, align 8
  %43 = extractvalue { ptr, i32 } %41, 1
  store i32 %43, ptr %18, align 4
  call void @_ZN19cmListFileBacktraceD2Ev(ptr noundef nonnull align 8 dereferenceable(16) %16) #3
  br label %44

44:                                               ; preds = %40
  %45 = load ptr, ptr %17, align 8
  %46 = load i32, ptr %18, align 4
  %47 = insertvalue { ptr, i32 } poison, ptr %45, 0
  %48 = insertvalue { ptr, i32 } %47, i32 %46, 1
  resume { ptr, i32 } %48
}